target datalayout = "e-m:e-p270:32:32-p271:32:32-p272:64:64-i64:64-i128:128-f80:128-n8:16:32:64-S128"
target triple = "x86_64-pc-linux-gnu"

%"class.euf::enode" = type { ptr, i8, i8, i8, i8, i8, i8, i8, i8, i8, i32, i32, i32, i32, i32, i32, %class.ptr_vector, ptr, ptr, ptr, ptr, %class.id_var_list, %"class.euf::justification", %"class.euf::justification", i32, i8, %class.approx_set, %class.approx_set, [0 x ptr] }
%class.ptr_vector = type { %class.vector }
%class.vector = type { ptr }
%class.id_var_list = type { i32, ptr }
%"class.euf::justification" = type { i32, %union.anon, %union.anon.0 }
%union.anon = type { ptr }
%union.anon.0 = type { ptr }
%class.approx_set = type { %class.approx_set_tpl }
%class.approx_set_tpl = type { i64 }

; Function Attrs: mustprogress nounwind uwtable
define linkonce_odr hidden void @_ZN3euf13justificationC2Ei(ptr noundef nonnull align 8 dereferenceable(24) %0, i32 noundef %1) unnamed_addr #6 comdat align 2 {
  %3 = alloca ptr, align 8
  %4 = alloca i32, align 4
  store ptr %0, ptr %3, align 8, !tbaa !85
  store i32 %1, ptr %4, align 4, !tbaa !10
  %5 = load ptr, ptr %3, align 8
  %6 = getelementptr inbounds nuw %"class.euf::justification", ptr %5, i32 0, i32 0
  store i32 0, ptr %6, align 8, !tbaa !87
  %7 = getelementptr inbounds nuw %"class.euf::justification", ptr %5, i32 0, i32 1
  %8 = load i32, ptr %4, align 4, !tbaa !10
  store i32 %8, ptr %7, align 8, !tbaa !64
  %9 = getelementptr inbounds nuw %"class.euf::justification", ptr %5, i32 0, i32 2
  store ptr null, ptr %9, align 8, !tbaa !64
  ret void
}

; Function Attrs: mustprogress uwtable
define linkonce_odr hidden void @_ZN3euf13justification5axiomEi(ptr dead_on_unwind noalias writable sret(%"class.euf::justification") align 8 %0, i32 noundef %1) #4 comdat align 2 {
  %3 = alloca i32, align 4
  store i32 %1, ptr %3, align 4, !tbaa !10
  %4 = load i32, ptr %3, align 4, !tbaa !10
  call void @_ZN3euf13justificationC2Ei(ptr noundef nonnull align 8 dereferenceable(24) %0, i32 noundef %4)
  ret void
}

; Function Attrs: mustprogress uwtable
define hidden void @_ZN3euf5enode21reverse_justificationEv(ptr noundef nonnull align 8 dereferenceable(176) %0) #4 align 2 {
  %2 = alloca ptr, align 8
  %3 = alloca ptr, align 8
  %4 = alloca ptr, align 8
  %5 = alloca %"class.euf::justification", align 8
  %6 = alloca %"class.euf::justification", align 8
  %7 = alloca ptr, align 8
  %8 = alloca %"class.euf::justification", align 8
  store ptr %0, ptr %2, align 8, !tbaa !3
  %9 = load ptr, ptr %2, align 8
  call void @llvm.lifetime.start.p0(i64 8, ptr %3) #3
  %10 = getelementptr inbounds nuw %"class.euf::enode", ptr %9, i32 0, i32 19
  %11 = load ptr, ptr %10, align 8, !tbaa !34
  store ptr %11, ptr %3, align 8, !tbaa !3
  call void @llvm.lifetime.start.p0(i64 8, ptr %4) #3
  store ptr %9, ptr %4, align 8, !tbaa !3
  call void @llvm.lifetime.start.p0(i64 24, ptr %5) #3
  %12 = getelementptr inbounds nuw %"class.euf::enode", ptr %9, i32 0, i32 22
  call void @llvm.memcpy.p0.p0.i64(ptr align 8 %5, ptr align 8 %12, i64 24, i1 false), !tbaa.struct !62
  %13 = load ptr, ptr %4, align 8, !tbaa !3
  %14 = getelementptr inbounds nuw %"class.euf::enode", ptr %13, i32 0, i32 19
  store ptr null, ptr %14, align 8, !tbaa !34
  call void @llvm.lifetime.start.p0(i64 24, ptr %6) #3
  call void @_ZN3euf13justification5axiomEi(ptr dead_on_unwind writable sret(%"class.euf::justification") align 8 %6, i32 noundef -1)
  %15 = load ptr, ptr %4, align 8, !tbaa !3
  %16 = getelementptr inbounds nuw %"class.euf::enode", ptr %15, i32 0, i32 22
  call void @llvm.memcpy.p0.p0.i64(ptr align 8 %16, ptr align 8 %6, i64 24, i1 false), !tbaa.struct !62
  call void @llvm.lifetime.end.p0(i64 24, ptr %6) #3
  br label %17

17:                                               ; preds = %20, %1
  %18 = load ptr, ptr %3, align 8, !tbaa !3
  %19 = icmp ne ptr %18, null
  br i1 %19, label %20, label %33

20:                                               ; preds = %17
  call void @llvm.lifetime.start.p0(i64 8, ptr %7) #3
  %21 = load ptr, ptr %3, align 8, !tbaa !3
  %22 = getelementptr inbounds nuw %"class.euf::enode", ptr %21, i32 0, i32 19
  %23 = load ptr, ptr %22, align 8, !tbaa !34
  store ptr %23, ptr %7, align 8, !tbaa !3
  call void @llvm.lifetime.start.p0(i64 24, ptr %8) #3
  %24 = load ptr, ptr %3, align 8, !tbaa !3
  %25 = getelementptr inbounds nuw %"class.euf::enode", ptr %24, i32 0, i32 22
  call void @llvm.memcpy.p0.p0.i64(ptr align 8 %8, ptr align 8 %25, i64 24, i1 false), !tbaa.struct !62
  %26 = load ptr, ptr %4, align 8, !tbaa !3
  %27 = load ptr, ptr %3, align 8, !tbaa !3
  %28 = getelementptr inbounds nuw %"class.euf::enode", ptr %27, i32 0, i32 19
  store ptr %26, ptr %28, align 8, !tbaa !34
  %29 = load ptr, ptr %3, align 8, !tbaa !3
  %30 = getelementptr inbounds nuw %"class.euf::enode", ptr %29, i32 0, i32 22
  call void @llvm.memcpy.p0.p0.i64(ptr align 8 %30, ptr align 8 %5, i64 24, i1 false), !tbaa.struct !62
  %31 = load ptr, ptr %3, align 8, !tbaa !3
  store ptr %31, ptr %4, align 8, !tbaa !3
  call void @llvm.memcpy.p0.p0.i64(ptr align 8 %5, ptr align 8 %8, i64 24, i1 false), !tbaa.struct !62
  %32 = load ptr, ptr %7, align 8, !tbaa !3
  store ptr %32, ptr %3, align 8, !tbaa !3
  call void @llvm.lifetime.end.p0(i64 24, ptr %8) #3
  call void @llvm.lifetime.end.p0(i64 8, ptr %7) #3
  br label %17, !llvm.loop !65

33:                                               ; preds = %17
  call void @llvm.lifetime.end.p0(i64 24, ptr %5) #3
  call void @llvm.lifetime.end.p0(i64 8, ptr %4) #3
  call void @llvm.lifetime.end.p0(i64 8, ptr %3) #3
  ret void
}