; Function Attrs: mustprogress nofree norecurse nosync nounwind memory(readwrite, inaccessiblemem: none) uwtable
define hidden void @_ZN3euf5enode21reverse_justificationEv(ptr noundef nonnull align 8 dereferenceable(176) %0) local_unnamed_addr #6 align 2 {
  %2 = alloca %"class.euf::justification", align 8
  %3 = alloca %"class.euf::justification", align 8
  %4 = getelementptr inbounds nuw i8, ptr %0, i64 72
  %5 = load ptr, ptr %4, align 8, !tbaa !25
  call void @llvm.lifetime.start.p0(i64 24, ptr nonnull %2)
  %6 = getelementptr inbounds nuw i8, ptr %0, i64 104
  call void @llvm.memcpy.p0.p0.i64(ptr noundef nonnull align 8 dereferenceable(24) %2, ptr noundef nonnull align 8 dereferenceable(24) %6, i64 24, i1 false), !tbaa.struct !47
  store ptr null, ptr %4, align 8, !tbaa !25
  store i32 0, ptr %6, align 8, !tbaa !48
  %.sroa.412.0..sroa_idx = getelementptr inbounds nuw i8, ptr %0, i64 112
  store i32 -1, ptr %.sroa.412.0..sroa_idx, align 8
  %.sroa.513.0..sroa_idx = getelementptr inbounds nuw i8, ptr %0, i64 120
  store ptr null, ptr %.sroa.513.0..sroa_idx, align 8, !tbaa !49
  %.not14 = icmp eq ptr %5, null
  br i1 %.not14, label %._crit_edge, label %.lr.ph

.lr.ph:                                           ; preds = %1, %.lr.ph
  %.016 = phi ptr [ %8, %.lr.ph ], [ %5, %1 ]
  %.01115 = phi ptr [ %.016, %.lr.ph ], [ %0, %1 ]
  %7 = getelementptr inbounds nuw i8, ptr %.016, i64 72
  %8 = load ptr, ptr %7, align 8, !tbaa !25
  call void @llvm.lifetime.start.p0(i64 24, ptr nonnull %3)
  %9 = getelementptr inbounds nuw i8, ptr %.016, i64 104
  call void @llvm.memcpy.p0.p0.i64(ptr noundef nonnull align 8 dereferenceable(24) %3, ptr noundef nonnull align 8 dereferenceable(24) %9, i64 24, i1 false), !tbaa.struct !47
  store ptr %.01115, ptr %7, align 8, !tbaa !25
  call void @llvm.memcpy.p0.p0.i64(ptr noundef nonnull align 8 dereferenceable(24) %9, ptr noundef nonnull align 8 dereferenceable(24) %2, i64 24, i1 false), !tbaa.struct !47
  call void @llvm.memcpy.p0.p0.i64(ptr noundef nonnull align 8 dereferenceable(24) %2, ptr noundef nonnull align 8 dereferenceable(24) %3, i64 24, i1 false), !tbaa.struct !47
  call void @llvm.lifetime.end.p0(i64 24, ptr nonnull %3)
  %.not = icmp eq ptr %8, null
  br i1 %.not, label %._crit_edge, label %.lr.ph, !llvm.loop !50

._crit_edge:                                      ; preds = %.lr.ph, %1
  call void @llvm.lifetime.end.p0(i64 24, ptr nonnull %2)
  ret void
}